target datalayout = "e-m:e-p270:32:32-p271:32:32-p272:64:64-i64:64-i128:128-f80:128-n8:16:32:64-S128"
target triple = "x86_64-pc-linux-gnu"

%struct._object = type { %union.anon, ptr }
%union.anon = type { i64 }
%struct.Py_buffer = type { ptr, ptr, i64, i64, i32, i32, ptr, ptr, ptr, ptr, ptr }
%struct.UnpicklerObject = type { %struct._object, ptr, ptr, i64, i64, ptr, ptr, %struct.Py_buffer, ptr, ptr, i64, i64, i64, ptr, ptr, ptr, ptr, ptr, ptr, ptr, ptr, i64, i64, i32, i32 }

; Function Attrs: inlinehint nounwind uwtable
define internal ptr @_Py_TYPE(ptr noundef %0) #3 {
  %2 = alloca ptr, align 8
  store ptr %0, ptr %2, align 8, !tbaa !3
  %3 = load ptr, ptr %2, align 8, !tbaa !3
  %4 = getelementptr inbounds nuw %struct._object, ptr %3, i32 0, i32 1
  %5 = load ptr, ptr %4, align 8, !tbaa !83
  ret ptr %5
}

; Function Attrs: nounwind uwtable
define internal i32 @Unpickler_traverse(ptr noundef %0, ptr noundef %1, ptr noundef %2) #0 {
  %4 = alloca i32, align 4
  %5 = alloca ptr, align 8
  %6 = alloca ptr, align 8
  %7 = alloca ptr, align 8
  %8 = alloca i32, align 4
  %9 = alloca i32, align 4
  %10 = alloca i32, align 4
  %11 = alloca i32, align 4
  %12 = alloca i32, align 4
  %13 = alloca i32, align 4
  %14 = alloca i32, align 4
  %15 = alloca i32, align 4
  %16 = alloca i32, align 4
  %17 = alloca ptr, align 8
  %18 = alloca i64, align 8
  %19 = alloca i32, align 4
  store ptr %0, ptr %5, align 8, !tbaa !156
  store ptr %1, ptr %6, align 8, !tbaa !8
  store ptr %2, ptr %7, align 8, !tbaa !8
  br label %20

20:                                               ; preds = %3
  %21 = load ptr, ptr %5, align 8, !tbaa !156
  %22 = call ptr @_Py_TYPE(ptr noundef %21)
  %23 = icmp ne ptr %22, null
  br i1 %23, label %24, label %38

24:                                               ; preds = %20
  call void @llvm.lifetime.start.p0(i64 4, ptr %8) #10
  %25 = load ptr, ptr %6, align 8, !tbaa !8
  %26 = load ptr, ptr %5, align 8, !tbaa !156
  %27 = call ptr @_Py_TYPE(ptr noundef %26)
  %28 = load ptr, ptr %7, align 8, !tbaa !8
  %29 = call i32 %25(ptr noundef %27, ptr noundef %28)
  store i32 %29, ptr %8, align 4, !tbaa !12
  %30 = load i32, ptr %8, align 4, !tbaa !12
  %31 = icmp ne i32 %30, 0
  br i1 %31, label %32, label %34

32:                                               ; preds = %24
  %33 = load i32, ptr %8, align 4, !tbaa !12
  store i32 %33, ptr %4, align 4
  store i32 1, ptr %9, align 4
  br label %35

34:                                               ; preds = %24
  store i32 0, ptr %9, align 4
  br label %35

35:                                               ; preds = %34, %32
  call void @llvm.lifetime.end.p0(i64 4, ptr %8) #10
  %36 = load i32, ptr %9, align 4
  switch i32 %36, label %241 [
    i32 0, label %37
    i32 1, label %239
  ]

37:                                               ; preds = %35
  br label %38

38:                                               ; preds = %37, %20
  br label %39

39:                                               ; preds = %38
  br label %40

40:                                               ; preds = %39
  %41 = load ptr, ptr %5, align 8, !tbaa !156
  %42 = getelementptr inbounds nuw %struct.UnpicklerObject, ptr %41, i32 0, i32 15
  %43 = load ptr, ptr %42, align 8, !tbaa !173
  %44 = icmp ne ptr %43, null
  br i1 %44, label %45, label %60

45:                                               ; preds = %40
  call void @llvm.lifetime.start.p0(i64 4, ptr %10) #10
  %46 = load ptr, ptr %6, align 8, !tbaa !8
  %47 = load ptr, ptr %5, align 8, !tbaa !156
  %48 = getelementptr inbounds nuw %struct.UnpicklerObject, ptr %47, i32 0, i32 15
  %49 = load ptr, ptr %48, align 8, !tbaa !173
  %50 = load ptr, ptr %7, align 8, !tbaa !8
  %51 = call i32 %46(ptr noundef %49, ptr noundef %50)
  store i32 %51, ptr %10, align 4, !tbaa !12
  %52 = load i32, ptr %10, align 4, !tbaa !12
  %53 = icmp ne i32 %52, 0
  br i1 %53, label %54, label %56

54:                                               ; preds = %45
  %55 = load i32, ptr %10, align 4, !tbaa !12
  store i32 %55, ptr %4, align 4
  store i32 1, ptr %9, align 4
  br label %57

56:                                               ; preds = %45
  store i32 0, ptr %9, align 4
  br label %57

57:                                               ; preds = %56, %54
  call void @llvm.lifetime.end.p0(i64 4, ptr %10) #10
  %58 = load i32, ptr %9, align 4
  switch i32 %58, label %241 [
    i32 0, label %59
    i32 1, label %239
  ]

59:                                               ; preds = %57
  br label %60

60:                                               ; preds = %59, %40
  br label %61

61:                                               ; preds = %60
  br label %62

62:                                               ; preds = %61
  %63 = load ptr, ptr %5, align 8, !tbaa !156
  %64 = getelementptr inbounds nuw %struct.UnpicklerObject, ptr %63, i32 0, i32 14
  %65 = load ptr, ptr %64, align 8, !tbaa !172
  %66 = icmp ne ptr %65, null
  br i1 %66, label %67, label %82

67:                                               ; preds = %62
  call void @llvm.lifetime.start.p0(i64 4, ptr %11) #10
  %68 = load ptr, ptr %6, align 8, !tbaa !8
  %69 = load ptr, ptr %5, align 8, !tbaa !156
  %70 = getelementptr inbounds nuw %struct.UnpicklerObject, ptr %69, i32 0, i32 14
  %71 = load ptr, ptr %70, align 8, !tbaa !172
  %72 = load ptr, ptr %7, align 8, !tbaa !8
  %73 = call i32 %68(ptr noundef %71, ptr noundef %72)
  store i32 %73, ptr %11, align 4, !tbaa !12
  %74 = load i32, ptr %11, align 4, !tbaa !12
  %75 = icmp ne i32 %74, 0
  br i1 %75, label %76, label %78

76:                                               ; preds = %67
  %77 = load i32, ptr %11, align 4, !tbaa !12
  store i32 %77, ptr %4, align 4
  store i32 1, ptr %9, align 4
  br label %79

78:                                               ; preds = %67
  store i32 0, ptr %9, align 4
  br label %79

79:                                               ; preds = %78, %76
  call void @llvm.lifetime.end.p0(i64 4, ptr %11) #10
  %80 = load i32, ptr %9, align 4
  switch i32 %80, label %241 [
    i32 0, label %81
    i32 1, label %239
  ]

81:                                               ; preds = %79
  br label %82

82:                                               ; preds = %81, %62
  br label %83

83:                                               ; preds = %82
  br label %84

84:                                               ; preds = %83
  %85 = load ptr, ptr %5, align 8, !tbaa !156
  %86 = getelementptr inbounds nuw %struct.UnpicklerObject, ptr %85, i32 0, i32 13
  %87 = load ptr, ptr %86, align 8, !tbaa !171
  %88 = icmp ne ptr %87, null
  br i1 %88, label %89, label %104

89:                                               ; preds = %84
  call void @llvm.lifetime.start.p0(i64 4, ptr %12) #10
  %90 = load ptr, ptr %6, align 8, !tbaa !8
  %91 = load ptr, ptr %5, align 8, !tbaa !156
  %92 = getelementptr inbounds nuw %struct.UnpicklerObject, ptr %91, i32 0, i32 13
  %93 = load ptr, ptr %92, align 8, !tbaa !171
  %94 = load ptr, ptr %7, align 8, !tbaa !8
  %95 = call i32 %90(ptr noundef %93, ptr noundef %94)
  store i32 %95, ptr %12, align 4, !tbaa !12
  %96 = load i32, ptr %12, align 4, !tbaa !12
  %97 = icmp ne i32 %96, 0
  br i1 %97, label %98, label %100

98:                                               ; preds = %89
  %99 = load i32, ptr %12, align 4, !tbaa !12
  store i32 %99, ptr %4, align 4
  store i32 1, ptr %9, align 4
  br label %101

100:                                              ; preds = %89
  store i32 0, ptr %9, align 4
  br label %101

101:                                              ; preds = %100, %98
  call void @llvm.lifetime.end.p0(i64 4, ptr %12) #10
  %102 = load i32, ptr %9, align 4
  switch i32 %102, label %241 [
    i32 0, label %103
    i32 1, label %239
  ]

103:                                              ; preds = %101
  br label %104

104:                                              ; preds = %103, %84
  br label %105

105:                                              ; preds = %104
  br label %106

106:                                              ; preds = %105
  %107 = load ptr, ptr %5, align 8, !tbaa !156
  %108 = getelementptr inbounds nuw %struct.UnpicklerObject, ptr %107, i32 0, i32 16
  %109 = load ptr, ptr %108, align 8, !tbaa !174
  %110 = icmp ne ptr %109, null
  br i1 %110, label %111, label %126

111:                                              ; preds = %106
  call void @llvm.lifetime.start.p0(i64 4, ptr %13) #10
  %112 = load ptr, ptr %6, align 8, !tbaa !8
  %113 = load ptr, ptr %5, align 8, !tbaa !156
  %114 = getelementptr inbounds nuw %struct.UnpicklerObject, ptr %113, i32 0, i32 16
  %115 = load ptr, ptr %114, align 8, !tbaa !174
  %116 = load ptr, ptr %7, align 8, !tbaa !8
  %117 = call i32 %112(ptr noundef %115, ptr noundef %116)
  store i32 %117, ptr %13, align 4, !tbaa !12
  %118 = load i32, ptr %13, align 4, !tbaa !12
  %119 = icmp ne i32 %118, 0
  br i1 %119, label %120, label %122

120:                                              ; preds = %111
  %121 = load i32, ptr %13, align 4, !tbaa !12
  store i32 %121, ptr %4, align 4
  store i32 1, ptr %9, align 4
  br label %123

122:                                              ; preds = %111
  store i32 0, ptr %9, align 4
  br label %123

123:                                              ; preds = %122, %120
  call void @llvm.lifetime.end.p0(i64 4, ptr %13) #10
  %124 = load i32, ptr %9, align 4
  switch i32 %124, label %241 [
    i32 0, label %125
    i32 1, label %239
  ]

125:                                              ; preds = %123
  br label %126

126:                                              ; preds = %125, %106
  br label %127

127:                                              ; preds = %126
  br label %128

128:                                              ; preds = %127
  %129 = load ptr, ptr %5, align 8, !tbaa !156
  %130 = getelementptr inbounds nuw %struct.UnpicklerObject, ptr %129, i32 0, i32 1
  %131 = load ptr, ptr %130, align 8, !tbaa !160
  %132 = icmp ne ptr %131, null
  br i1 %132, label %133, label %148

133:                                              ; preds = %128
  call void @llvm.lifetime.start.p0(i64 4, ptr %14) #10
  %134 = load ptr, ptr %6, align 8, !tbaa !8
  %135 = load ptr, ptr %5, align 8, !tbaa !156
  %136 = getelementptr inbounds nuw %struct.UnpicklerObject, ptr %135, i32 0, i32 1
  %137 = load ptr, ptr %136, align 8, !tbaa !160
  %138 = load ptr, ptr %7, align 8, !tbaa !8
  %139 = call i32 %134(ptr noundef %137, ptr noundef %138)
  store i32 %139, ptr %14, align 4, !tbaa !12
  %140 = load i32, ptr %14, align 4, !tbaa !12
  %141 = icmp ne i32 %140, 0
  br i1 %141, label %142, label %144

142:                                              ; preds = %133
  %143 = load i32, ptr %14, align 4, !tbaa !12
  store i32 %143, ptr %4, align 4
  store i32 1, ptr %9, align 4
  br label %145

144:                                              ; preds = %133
  store i32 0, ptr %9, align 4
  br label %145

145:                                              ; preds = %144, %142
  call void @llvm.lifetime.end.p0(i64 4, ptr %14) #10
  %146 = load i32, ptr %9, align 4
  switch i32 %146, label %241 [
    i32 0, label %147
    i32 1, label %239
  ]

147:                                              ; preds = %145
  br label %148

148:                                              ; preds = %147, %128
  br label %149

149:                                              ; preds = %148
  br label %150

150:                                              ; preds = %149
  %151 = load ptr, ptr %5, align 8, !tbaa !156
  %152 = getelementptr inbounds nuw %struct.UnpicklerObject, ptr %151, i32 0, i32 5
  %153 = load ptr, ptr %152, align 8, !tbaa !164
  %154 = icmp ne ptr %153, null
  br i1 %154, label %155, label %170

155:                                              ; preds = %150
  call void @llvm.lifetime.start.p0(i64 4, ptr %15) #10
  %156 = load ptr, ptr %6, align 8, !tbaa !8
  %157 = load ptr, ptr %5, align 8, !tbaa !156
  %158 = getelementptr inbounds nuw %struct.UnpicklerObject, ptr %157, i32 0, i32 5
  %159 = load ptr, ptr %158, align 8, !tbaa !164
  %160 = load ptr, ptr %7, align 8, !tbaa !8
  %161 = call i32 %156(ptr noundef %159, ptr noundef %160)
  store i32 %161, ptr %15, align 4, !tbaa !12
  %162 = load i32, ptr %15, align 4, !tbaa !12
  %163 = icmp ne i32 %162, 0
  br i1 %163, label %164, label %166

164:                                              ; preds = %155
  %165 = load i32, ptr %15, align 4, !tbaa !12
  store i32 %165, ptr %4, align 4
  store i32 1, ptr %9, align 4
  br label %167

166:                                              ; preds = %155
  store i32 0, ptr %9, align 4
  br label %167

167:                                              ; preds = %166, %164
  call void @llvm.lifetime.end.p0(i64 4, ptr %15) #10
  %168 = load i32, ptr %9, align 4
  switch i32 %168, label %241 [
    i32 0, label %169
    i32 1, label %239
  ]

169:                                              ; preds = %167
  br label %170

170:                                              ; preds = %169, %150
  br label %171

171:                                              ; preds = %170
  br label %172

172:                                              ; preds = %171
  %173 = load ptr, ptr %5, align 8, !tbaa !156
  %174 = getelementptr inbounds nuw %struct.UnpicklerObject, ptr %173, i32 0, i32 17
  %175 = load ptr, ptr %174, align 8, !tbaa !175
  %176 = icmp ne ptr %175, null
  br i1 %176, label %177, label %192

177:                                              ; preds = %172
  call void @llvm.lifetime.start.p0(i64 4, ptr %16) #10
  %178 = load ptr, ptr %6, align 8, !tbaa !8
  %179 = load ptr, ptr %5, align 8, !tbaa !156
  %180 = getelementptr inbounds nuw %struct.UnpicklerObject, ptr %179, i32 0, i32 17
  %181 = load ptr, ptr %180, align 8, !tbaa !175
  %182 = load ptr, ptr %7, align 8, !tbaa !8
  %183 = call i32 %178(ptr noundef %181, ptr noundef %182)
  store i32 %183, ptr %16, align 4, !tbaa !12
  %184 = load i32, ptr %16, align 4, !tbaa !12
  %185 = icmp ne i32 %184, 0
  br i1 %185, label %186, label %188

186:                                              ; preds = %177
  %187 = load i32, ptr %16, align 4, !tbaa !12
  store i32 %187, ptr %4, align 4
  store i32 1, ptr %9, align 4
  br label %189

188:                                              ; preds = %177
  store i32 0, ptr %9, align 4
  br label %189

189:                                              ; preds = %188, %186
  call void @llvm.lifetime.end.p0(i64 4, ptr %16) #10
  %190 = load i32, ptr %9, align 4
  switch i32 %190, label %241 [
    i32 0, label %191
    i32 1, label %239
  ]

191:                                              ; preds = %189
  br label %192

192:                                              ; preds = %191, %172
  br label %193

193:                                              ; preds = %192
  call void @llvm.lifetime.start.p0(i64 8, ptr %17) #10
  %194 = load ptr, ptr %5, align 8, !tbaa !156
  %195 = getelementptr inbounds nuw %struct.UnpicklerObject, ptr %194, i32 0, i32 2
  %196 = load ptr, ptr %195, align 8, !tbaa !161
  store ptr %196, ptr %17, align 8, !tbaa !32
  %197 = load ptr, ptr %17, align 8, !tbaa !32
  %198 = icmp ne ptr %197, null
  br i1 %198, label %199, label %237

199:                                              ; preds = %193
  call void @llvm.lifetime.start.p0(i64 8, ptr %18) #10
  %200 = load ptr, ptr %5, align 8, !tbaa !156
  %201 = getelementptr inbounds nuw %struct.UnpicklerObject, ptr %200, i32 0, i32 3
  %202 = load i64, ptr %201, align 8, !tbaa !162
  store i64 %202, ptr %18, align 8, !tbaa !34
  br label %203

203:                                              ; preds = %232, %199
  %204 = load i64, ptr %18, align 8, !tbaa !34
  %205 = add i64 %204, -1
  store i64 %205, ptr %18, align 8, !tbaa !34
  %206 = icmp sge i64 %205, 0
  br i1 %206, label %207, label %233

207:                                              ; preds = %203
  br label %208

208:                                              ; preds = %207
  %209 = load ptr, ptr %17, align 8, !tbaa !32
  %210 = load i64, ptr %18, align 8, !tbaa !34
  %211 = getelementptr ptr, ptr %209, i64 %210
  %212 = load ptr, ptr %211, align 8, !tbaa !3
  %213 = icmp ne ptr %212, null
  br i1 %213, label %214, label %230

214:                                              ; preds = %208
  call void @llvm.lifetime.start.p0(i64 4, ptr %19) #10
  %215 = load ptr, ptr %6, align 8, !tbaa !8
  %216 = load ptr, ptr %17, align 8, !tbaa !32
  %217 = load i64, ptr %18, align 8, !tbaa !34
  %218 = getelementptr ptr, ptr %216, i64 %217
  %219 = load ptr, ptr %218, align 8, !tbaa !3
  %220 = load ptr, ptr %7, align 8, !tbaa !8
  %221 = call i32 %215(ptr noundef %219, ptr noundef %220)
  store i32 %221, ptr %19, align 4, !tbaa !12
  %222 = load i32, ptr %19, align 4, !tbaa !12
  %223 = icmp ne i32 %222, 0
  br i1 %223, label %224, label %226

224:                                              ; preds = %214
  %225 = load i32, ptr %19, align 4, !tbaa !12
  store i32 %225, ptr %4, align 4
  store i32 1, ptr %9, align 4
  br label %227

226:                                              ; preds = %214
  store i32 0, ptr %9, align 4
  br label %227

227:                                              ; preds = %226, %224
  call void @llvm.lifetime.end.p0(i64 4, ptr %19) #10
  %228 = load i32, ptr %9, align 4
  switch i32 %228, label %234 [
    i32 0, label %229
  ]

229:                                              ; preds = %227
  br label %230

230:                                              ; preds = %229, %208
  br label %231

231:                                              ; preds = %230
  br label %232

232:                                              ; preds = %231
  br label %203, !llvm.loop !237

233:                                              ; preds = %203
  store i32 0, ptr %9, align 4
  br label %234

234:                                              ; preds = %233, %227
  call void @llvm.lifetime.end.p0(i64 8, ptr %18) #10
  %235 = load i32, ptr %9, align 4
  switch i32 %235, label %238 [
    i32 0, label %236
  ]

236:                                              ; preds = %234
  br label %237

237:                                              ; preds = %236, %193
  store i32 0, ptr %4, align 4
  store i32 1, ptr %9, align 4
  br label %238

238:                                              ; preds = %237, %234
  call void @llvm.lifetime.end.p0(i64 8, ptr %17) #10
  br label %239

239:                                              ; preds = %238, %189, %167, %145, %123, %101, %79, %57, %35
  %240 = load i32, ptr %4, align 4
  ret i32 %240

241:                                              ; preds = %189, %167, %145, %123, %101, %79, %57, %35
  unreachable
}