; Function Attrs: nounwind uwtable
define internal i32 @Unpickler_traverse(ptr noundef readonly captures(none) %0, ptr noundef readonly captures(none) %1, ptr noundef %2) #0 {
  %4 = getelementptr i8, ptr %0, i64 8
  %.val131 = load ptr, ptr %4, align 8, !tbaa !50
  %.not = icmp eq ptr %.val131, null
  br i1 %.not, label %7, label %5

5:                                                ; preds = %3
  %6 = tail call i32 %1(ptr noundef nonnull %.val131, ptr noundef %2) #13
  %.not99.not = icmp eq i32 %6, 0
  br i1 %.not99.not, label %7, label %.thread

7:                                                ; preds = %5, %3
  %8 = getelementptr inbounds nuw i8, ptr %0, i64 200
  %9 = load ptr, ptr %8, align 8, !tbaa !163
  %.not100 = icmp eq ptr %9, null
  br i1 %.not100, label %12, label %10

10:                                               ; preds = %7
  %11 = tail call i32 %1(ptr noundef nonnull %9, ptr noundef %2) #13
  %.not101.not = icmp eq i32 %11, 0
  br i1 %.not101.not, label %12, label %.thread

12:                                               ; preds = %10, %7
  %13 = getelementptr inbounds nuw i8, ptr %0, i64 192
  %14 = load ptr, ptr %13, align 8, !tbaa !185
  %.not102 = icmp eq ptr %14, null
  br i1 %.not102, label %17, label %15

15:                                               ; preds = %12
  %16 = tail call i32 %1(ptr noundef nonnull %14, ptr noundef %2) #13
  %.not103.not = icmp eq i32 %16, 0
  br i1 %.not103.not, label %17, label %.thread

17:                                               ; preds = %15, %12
  %18 = getelementptr inbounds nuw i8, ptr %0, i64 184
  %19 = load ptr, ptr %18, align 8, !tbaa !164
  %.not104 = icmp eq ptr %19, null
  br i1 %.not104, label %22, label %20

20:                                               ; preds = %17
  %21 = tail call i32 %1(ptr noundef nonnull %19, ptr noundef %2) #13
  %.not105.not = icmp eq i32 %21, 0
  br i1 %.not105.not, label %22, label %.thread

22:                                               ; preds = %20, %17
  %23 = getelementptr inbounds nuw i8, ptr %0, i64 208
  %24 = load ptr, ptr %23, align 8, !tbaa !182
  %.not106 = icmp eq ptr %24, null
  br i1 %.not106, label %27, label %25

25:                                               ; preds = %22
  %26 = tail call i32 %1(ptr noundef nonnull %24, ptr noundef %2) #13
  %.not107.not = icmp eq i32 %26, 0
  br i1 %.not107.not, label %27, label %.thread

27:                                               ; preds = %25, %22
  %28 = getelementptr inbounds nuw i8, ptr %0, i64 16
  %29 = load ptr, ptr %28, align 8, !tbaa !160
  %.not108 = icmp eq ptr %29, null
  br i1 %.not108, label %32, label %30

30:                                               ; preds = %27
  %31 = tail call i32 %1(ptr noundef nonnull %29, ptr noundef %2) #13
  %.not109.not = icmp eq i32 %31, 0
  br i1 %.not109.not, label %32, label %.thread

32:                                               ; preds = %30, %27
  %33 = getelementptr inbounds nuw i8, ptr %0, i64 48
  %34 = load ptr, ptr %33, align 8, !tbaa !180
  %.not110 = icmp eq ptr %34, null
  br i1 %.not110, label %37, label %35

35:                                               ; preds = %32
  %36 = tail call i32 %1(ptr noundef nonnull %34, ptr noundef %2) #13
  %.not111.not = icmp eq i32 %36, 0
  br i1 %.not111.not, label %37, label %.thread

37:                                               ; preds = %35, %32
  %38 = getelementptr inbounds nuw i8, ptr %0, i64 216
  %39 = load ptr, ptr %38, align 8, !tbaa !65
  %.not112 = icmp eq ptr %39, null
  br i1 %.not112, label %42, label %40

40:                                               ; preds = %37
  %41 = tail call i32 %1(ptr noundef nonnull %39, ptr noundef %2) #13
  %.not113.not = icmp eq i32 %41, 0
  br i1 %.not113.not, label %42, label %.thread

42:                                               ; preds = %40, %37
  %43 = getelementptr inbounds nuw i8, ptr %0, i64 24
  %44 = load ptr, ptr %43, align 8, !tbaa !161
  %.not114 = icmp eq ptr %44, null
  br i1 %.not114, label %.thread, label %45

45:                                               ; preds = %42
  %46 = getelementptr inbounds nuw i8, ptr %0, i64 32
  %47 = load i64, ptr %46, align 8, !tbaa !162
  %48 = add i64 %47, -1
  %49 = icmp slt i64 %48, 0
  br i1 %49, label %.thread, label %.lr.ph

.lr.ph:                                           ; preds = %45, %55
  %50 = phi i64 [ %56, %55 ], [ %48, %45 ]
  %51 = getelementptr ptr, ptr %44, i64 %50
  %52 = load ptr, ptr %51, align 8, !tbaa !35
  %.not115 = icmp eq ptr %52, null
  br i1 %.not115, label %55, label %53

53:                                               ; preds = %.lr.ph
  %54 = tail call i32 %1(ptr noundef nonnull %52, ptr noundef %2) #13
  %.not116 = icmp eq i32 %54, 0
  br i1 %.not116, label %55, label %.thread

55:                                               ; preds = %53, %.lr.ph
  %56 = add nsw i64 %50, -1
  %57 = icmp slt i64 %50, 1
  br i1 %57, label %.thread, label %.lr.ph, !llvm.loop !216

.thread:                                          ; preds = %53, %55, %45, %42, %40, %35, %30, %25, %20, %15, %10, %5
  %.1 = phi i32 [ %6, %5 ], [ %11, %10 ], [ %16, %15 ], [ %21, %20 ], [ %26, %25 ], [ %31, %30 ], [ %36, %35 ], [ %41, %40 ], [ 0, %42 ], [ 0, %45 ], [ %54, %53 ], [ 0, %55 ]
  ret i32 %.1
}